; Function Attrs: nounwind uwtable
define void @controlledRotateX(ptr noundef readonly byval(%struct.Qureg) align 8 captures(none) %0, i32 noundef %1, i32 noundef %2, double noundef %3) local_unnamed_addr #0 {
  tail call void @validateControlTarget(ptr noundef nonnull byval(%struct.Qureg) align 8 %0, i32 noundef %1, i32 noundef %2, ptr noundef nonnull @__func__.controlledRotateX) #17
  tail call void @statevec_controlledRotateX(ptr noundef nonnull byval(%struct.Qureg) align 8 %0, i32 noundef %1, i32 noundef %2, double noundef %3) #17
  %5 = load i32, ptr %0, align 8, !tbaa !12
  %.not = icmp eq i32 %5, 0
  br i1 %.not, label %12, label %6

6:                                                ; preds = %4
  %7 = getelementptr inbounds nuw i8, ptr %0, i64 4
  %8 = load i32, ptr %7, align 4, !tbaa !17
  %9 = add nsw i32 %8, %1
  %10 = add nsw i32 %8, %2
  %11 = fneg double %3
  tail call void @statevec_controlledRotateX(ptr noundef nonnull byval(%struct.Qureg) align 8 %0, i32 noundef %9, i32 noundef %10, double noundef %11) #17
  br label %12

12:                                               ; preds = %6, %4
  tail call void @qasm_recordControlledParamGate(ptr noundef nonnull byval(%struct.Qureg) align 8 %0, i32 noundef 6, i32 noundef %1, i32 noundef %2, double noundef %3) #17
  ret void
}